; Function Attrs: mustprogress uwtable
define hidden noundef zeroext i1 @_ZNK3nla4core8has_realERKNS_13factorizationE(ptr noundef nonnull readonly align 8 captures(none) dereferenceable(4736) %0, ptr noundef nonnull readonly align 8 captures(none) dereferenceable(16) %1) local_unnamed_addr #4 align 2 {
  %3 = load ptr, ptr %1, align 8, !tbaa !300
  %4 = icmp eq ptr %3, null
  br i1 %4, label %._crit_edge, label %_ZNK3nla13factorization3endEv.exit

_ZNK3nla13factorization3endEv.exit:               ; preds = %2
  %5 = getelementptr inbounds i8, ptr %3, i64 -4
  %6 = load i32, ptr %5, align 4, !tbaa !249
  %7 = zext i32 %6 to i64
  %8 = getelementptr inbounds nuw %"class.nla::factor", ptr %3, i64 %7
  %.not17.not = icmp eq i32 %6, 0
  br i1 %.not17.not, label %._crit_edge, label %.lr.ph

.lr.ph:                                           ; preds = %_ZNK3nla13factorization3endEv.exit
  %9 = getelementptr inbounds nuw i8, ptr %0, i64 192
  br label %10

10:                                               ; preds = %10, %.lr.ph
  %.01418 = phi ptr [ %3, %.lr.ph ], [ %14, %10 ]
  %11 = load i32, ptr %.01418, align 4, !tbaa !292
  %12 = load ptr, ptr %9, align 8, !tbaa !195
  %13 = tail call noundef zeroext i1 @_ZNK2lp10lar_solver13column_is_intEj(ptr noundef nonnull align 8 dereferenceable(2128) %12, i32 noundef %11)
  %14 = getelementptr inbounds nuw i8, ptr %.01418, i64 12
  %.not.not = icmp ne ptr %14, %8
  %or.cond.not = select i1 %13, i1 %.not.not, i1 false
  br i1 %or.cond.not, label %10, label %._crit_edge.loopexit

._crit_edge.loopexit:                             ; preds = %10
  %.not.lcssa.ph = xor i1 %13, true
  br label %._crit_edge

._crit_edge:                                      ; preds = %2, %._crit_edge.loopexit, %_ZNK3nla13factorization3endEv.exit
  %.not.lcssa = phi i1 [ false, %_ZNK3nla13factorization3endEv.exit ], [ %.not.lcssa.ph, %._crit_edge.loopexit ], [ false, %2 ]
  ret i1 %.not.lcssa
}